target datalayout = "e-m:e-p270:32:32-p271:32:32-p272:64:64-i64:64-i128:128-f80:128-n8:16:32:64-S128"
target triple = "x86_64-pc-linux-gnu"

%struct.quic_conn_id_st = type { i8, [20 x i8] }
%union.bio_addr_st = type { %struct.sockaddr_in6, [84 x i8] }
%struct.sockaddr_in6 = type { i16, i16, i32, %struct.in6_addr, i32 }
%struct.in6_addr = type { %union.anon }
%union.anon = type { [4 x i32] }
%struct.OSSL_TIME = type { i64 }
%struct.quic_channel_st = type { ptr, %struct.anon, %struct.anon.0, ptr, ptr, ptr, ptr, ptr, ptr, ptr, i64, %union.bio_addr_st, ptr, ptr, ptr, %struct.quic_txfc_st, %struct.quic_rxfc_st, [3 x %struct.quic_rxfc_st], %struct.quic_rxfc_st, %struct.quic_rxfc_st, %struct.quic_stream_map_st, %struct.ossl_statm_st, ptr, ptr, ptr, ptr, ptr, ptr, ptr, ptr, [3 x ptr], [3 x ptr], %struct.quic_conn_id_st, %struct.quic_conn_id_st, %struct.quic_conn_id_st, %struct.quic_conn_id_st, %struct.quic_conn_id_st, %struct.quic_conn_id_st, i64, i64, i64, i64, i64, i64, i64, i64, i64, i64, i8, i16, ptr, i64, i64, i64, i64, i64, i64, i64, i64, i64, i64, i64, i64, i64, %struct.quic_terminate_cause_st, %struct.OSSL_TIME, %struct.OSSL_TIME, %struct.OSSL_TIME, %struct.OSSL_TIME, %struct.OSSL_TIME, i64, i64, i64, ptr, ptr, i64, ptr }
%struct.anon = type { ptr, ptr }
%struct.anon.0 = type { ptr, ptr }
%struct.quic_txfc_st = type { ptr, i64, i64, i8 }
%struct.quic_rxfc_st = type { i64, i64, i64, i64, i64, i64, i64, %struct.OSSL_TIME, ptr, ptr, ptr, i8, i8, i8, i8 }
%struct.quic_stream_map_st = type { ptr, %struct.quic_stream_list_node_st, %struct.quic_stream_list_node_st, %struct.quic_stream_list_node_st, i64, i64, i64, i64, i64, ptr, ptr, ptr, ptr, ptr, i32 }
%struct.quic_stream_list_node_st = type { ptr, ptr }
%struct.ossl_statm_st = type { %struct.OSSL_TIME, %struct.OSSL_TIME, %struct.OSSL_TIME, %struct.OSSL_TIME, i8 }
%struct.quic_terminate_cause_st = type { i64, i64, ptr, i64, i8 }

@.str = private unnamed_addr constant [35 x i8] c"../openssl/ssl/quic/quic_channel.c\00", align 1
@.str.13 = private unnamed_addr constant [31 x i8] c"crypto stream data in wrong EL\00", align 1
@__func__.ch_on_handshake_yield_secret = private unnamed_addr constant [29 x i8] c"ch_on_handshake_yield_secret\00", align 1

; Function Attrs: nounwind uwtable
define internal i32 @crypto_ensure_empty(ptr noundef %0) #0 {
  %2 = alloca i32, align 4
  %3 = alloca ptr, align 8
  %4 = alloca i64, align 8
  %5 = alloca i32, align 4
  %6 = alloca i32, align 4
  store ptr %0, ptr %3, align 8, !tbaa !120
  call void @llvm.lifetime.start.p0(i64 8, ptr %4) #9
  store i64 0, ptr %4, align 8, !tbaa !47
  call void @llvm.lifetime.start.p0(i64 4, ptr %5) #9
  store i32 0, ptr %5, align 4, !tbaa !80
  %7 = load ptr, ptr %3, align 8, !tbaa !120
  %8 = icmp eq ptr %7, null
  br i1 %8, label %9, label %10

9:                                                ; preds = %1
  store i32 1, ptr %2, align 4
  store i32 1, ptr %6, align 4
  br label %19

10:                                               ; preds = %1
  %11 = load ptr, ptr %3, align 8, !tbaa !120
  %12 = call i32 @ossl_quic_rstream_available(ptr noundef %11, ptr noundef %4, ptr noundef %5)
  %13 = icmp ne i32 %12, 0
  br i1 %13, label %15, label %14

14:                                               ; preds = %10
  store i32 0, ptr %2, align 4
  store i32 1, ptr %6, align 4
  br label %19

15:                                               ; preds = %10
  %16 = load i64, ptr %4, align 8, !tbaa !47
  %17 = icmp eq i64 %16, 0
  %18 = zext i1 %17 to i32
  store i32 %18, ptr %2, align 4
  store i32 1, ptr %6, align 4
  br label %19

19:                                               ; preds = %15, %14, %9
  call void @llvm.lifetime.end.p0(i64 4, ptr %5) #9
  call void @llvm.lifetime.end.p0(i64 8, ptr %4) #9
  %20 = load i32, ptr %2, align 4
  ret i32 %20
}

; Function Attrs: inlinehint nounwind uwtable
define internal i32 @ossl_quic_enc_level_to_pn_space(i32 noundef %0) #4 {
  %2 = alloca i32, align 4
  %3 = alloca i32, align 4
  store i32 %0, ptr %3, align 4, !tbaa !80
  %4 = load i32, ptr %3, align 4, !tbaa !80
  switch i32 %4, label %8 [
    i32 0, label %5
    i32 2, label %6
    i32 1, label %7
    i32 3, label %7
  ]

5:                                                ; preds = %1
  store i32 0, ptr %2, align 4
  br label %9

6:                                                ; preds = %1
  store i32 1, ptr %2, align 4
  br label %9

7:                                                ; preds = %1, %1
  store i32 2, ptr %2, align 4
  br label %9

8:                                                ; preds = %1
  store i32 2, ptr %2, align 4
  br label %9

9:                                                ; preds = %8, %7, %6, %5
  %10 = load i32, ptr %2, align 4
  ret i32 %10
}

; Function Attrs: nounwind uwtable
define internal i32 @ch_on_handshake_yield_secret(i32 noundef %0, i32 noundef %1, i32 noundef %2, ptr noundef %3, ptr noundef %4, i64 noundef %5, ptr noundef %6) #0 {
  %8 = alloca i32, align 4
  %9 = alloca i32, align 4
  %10 = alloca i32, align 4
  %11 = alloca i32, align 4
  %12 = alloca ptr, align 8
  %13 = alloca ptr, align 8
  %14 = alloca i64, align 8
  %15 = alloca ptr, align 8
  %16 = alloca ptr, align 8
  %17 = alloca i32, align 4
  %18 = alloca i32, align 4
  %19 = alloca i32, align 4
  store i32 %0, ptr %9, align 4, !tbaa !80
  store i32 %1, ptr %10, align 4, !tbaa !80
  store i32 %2, ptr %11, align 4, !tbaa !80
  store ptr %3, ptr %12, align 8, !tbaa !277
  store ptr %4, ptr %13, align 8, !tbaa !176
  store i64 %5, ptr %14, align 8, !tbaa !47
  store ptr %6, ptr %15, align 8, !tbaa !172
  call void @llvm.lifetime.start.p0(i64 8, ptr %16) #9
  %20 = load ptr, ptr %15, align 8, !tbaa !172
  store ptr %20, ptr %16, align 8, !tbaa !3
  call void @llvm.lifetime.start.p0(i64 4, ptr %17) #9
  call void @llvm.lifetime.start.p0(i64 4, ptr %18) #9
  %21 = load i32, ptr %9, align 4, !tbaa !80
  switch i32 %21, label %25 [
    i32 1, label %22
    i32 2, label %23
    i32 3, label %24
  ]

22:                                               ; preds = %7
  store i32 1, ptr %18, align 4, !tbaa !80
  br label %26

23:                                               ; preds = %7
  store i32 2, ptr %18, align 4, !tbaa !80
  br label %26

24:                                               ; preds = %7
  store i32 3, ptr %18, align 4, !tbaa !80
  br label %26

25:                                               ; preds = %7
  store i32 0, ptr %8, align 4
  store i32 1, ptr %19, align 4
  br label %127

26:                                               ; preds = %24, %23, %22
  %27 = load i32, ptr %18, align 4, !tbaa !80
  %28 = icmp ult i32 %27, 2
  br i1 %28, label %32, label %29

29:                                               ; preds = %26
  %30 = load i32, ptr %18, align 4, !tbaa !80
  %31 = icmp uge i32 %30, 4
  br i1 %31, label %32, label %33

32:                                               ; preds = %29, %26
  store i32 0, ptr %8, align 4
  store i32 1, ptr %19, align 4
  br label %127

33:                                               ; preds = %29
  %34 = load i32, ptr %10, align 4, !tbaa !80
  %35 = icmp ne i32 %34, 0
  br i1 %35, label %36, label %68

36:                                               ; preds = %33
  %37 = load i32, ptr %18, align 4, !tbaa !80
  %38 = load ptr, ptr %16, align 8, !tbaa !3
  %39 = getelementptr inbounds nuw %struct.quic_channel_st, ptr %38, i32 0, i32 72
  %40 = load i64, ptr %39, align 8
  %41 = lshr i64 %40, 14
  %42 = and i64 %41, 7
  %43 = trunc i64 %42 to i32
  %44 = icmp ule i32 %37, %43
  br i1 %44, label %45, label %46

45:                                               ; preds = %36
  store i32 0, ptr %8, align 4
  store i32 1, ptr %19, align 4
  br label %127

46:                                               ; preds = %36
  %47 = load ptr, ptr %16, align 8, !tbaa !3
  %48 = getelementptr inbounds nuw %struct.quic_channel_st, ptr %47, i32 0, i32 25
  %49 = load ptr, ptr %48, align 8, !tbaa !74
  %50 = load i32, ptr %18, align 4, !tbaa !80
  %51 = load i32, ptr %11, align 4, !tbaa !80
  %52 = load ptr, ptr %12, align 8, !tbaa !277
  %53 = load ptr, ptr %13, align 8, !tbaa !176
  %54 = load i64, ptr %14, align 8, !tbaa !47
  %55 = call i32 @ossl_qtx_provide_secret(ptr noundef %49, i32 noundef %50, i32 noundef %51, ptr noundef %52, ptr noundef %53, i64 noundef %54)
  %56 = icmp ne i32 %55, 0
  br i1 %56, label %58, label %57

57:                                               ; preds = %46
  store i32 0, ptr %8, align 4
  store i32 1, ptr %19, align 4
  br label %127

58:                                               ; preds = %46
  %59 = load i32, ptr %18, align 4, !tbaa !80
  %60 = load ptr, ptr %16, align 8, !tbaa !3
  %61 = getelementptr inbounds nuw %struct.quic_channel_st, ptr %60, i32 0, i32 72
  %62 = zext i32 %59 to i64
  %63 = load i64, ptr %61, align 8
  %64 = and i64 %62, 7
  %65 = shl i64 %64, 14
  %66 = and i64 %63, -114689
  %67 = or i64 %66, %65
  store i64 %67, ptr %61, align 8
  br label %126

68:                                               ; preds = %33
  %69 = load i32, ptr %18, align 4, !tbaa !80
  %70 = load ptr, ptr %16, align 8, !tbaa !3
  %71 = getelementptr inbounds nuw %struct.quic_channel_st, ptr %70, i32 0, i32 72
  %72 = load i64, ptr %71, align 8
  %73 = lshr i64 %72, 17
  %74 = and i64 %73, 7
  %75 = trunc i64 %74 to i32
  %76 = icmp ule i32 %69, %75
  br i1 %76, label %77, label %78

77:                                               ; preds = %68
  store i32 0, ptr %8, align 4
  store i32 1, ptr %19, align 4
  br label %127

78:                                               ; preds = %68
  store i32 0, ptr %17, align 4, !tbaa !80
  br label %79

79:                                               ; preds = %96, %78
  %80 = load i32, ptr %17, align 4, !tbaa !80
  %81 = load i32, ptr %18, align 4, !tbaa !80
  %82 = icmp ult i32 %80, %81
  br i1 %82, label %83, label %99

83:                                               ; preds = %79
  %84 = load ptr, ptr %16, align 8, !tbaa !3
  %85 = getelementptr inbounds nuw %struct.quic_channel_st, ptr %84, i32 0, i32 31
  %86 = load i32, ptr %17, align 4, !tbaa !80
  %87 = call i32 @ossl_quic_enc_level_to_pn_space(i32 noundef %86)
  %88 = zext i32 %87 to i64
  %89 = getelementptr inbounds nuw [3 x ptr], ptr %85, i64 0, i64 %88
  %90 = load ptr, ptr %89, align 8, !tbaa !120
  %91 = call i32 @crypto_ensure_empty(ptr noundef %90)
  %92 = icmp ne i32 %91, 0
  br i1 %92, label %95, label %93

93:                                               ; preds = %83
  %94 = load ptr, ptr %16, align 8, !tbaa !3
  call void @ossl_quic_channel_raise_protocol_error_loc(ptr noundef %94, i64 noundef 10, i64 noundef 6, ptr noundef @.str.13, ptr noundef null, ptr noundef @.str, i32 noundef 1079, ptr noundef @__func__.ch_on_handshake_yield_secret)
  store i32 0, ptr %8, align 4
  store i32 1, ptr %19, align 4
  br label %127

95:                                               ; preds = %83
  br label %96

96:                                               ; preds = %95
  %97 = load i32, ptr %17, align 4, !tbaa !80
  %98 = add i32 %97, 1
  store i32 %98, ptr %17, align 4, !tbaa !80
  br label %79, !llvm.loop !279

99:                                               ; preds = %79
  %100 = load ptr, ptr %16, align 8, !tbaa !3
  %101 = getelementptr inbounds nuw %struct.quic_channel_st, ptr %100, i32 0, i32 26
  %102 = load ptr, ptr %101, align 8, !tbaa !119
  %103 = load i32, ptr %18, align 4, !tbaa !80
  %104 = load i32, ptr %11, align 4, !tbaa !80
  %105 = load ptr, ptr %12, align 8, !tbaa !277
  %106 = load ptr, ptr %13, align 8, !tbaa !176
  %107 = load i64, ptr %14, align 8, !tbaa !47
  %108 = call i32 @ossl_qrx_provide_secret(ptr noundef %102, i32 noundef %103, i32 noundef %104, ptr noundef %105, ptr noundef %106, i64 noundef %107)
  %109 = icmp ne i32 %108, 0
  br i1 %109, label %111, label %110

110:                                              ; preds = %99
  store i32 0, ptr %8, align 4
  store i32 1, ptr %19, align 4
  br label %127

111:                                              ; preds = %99
  %112 = load ptr, ptr %16, align 8, !tbaa !3
  %113 = getelementptr inbounds nuw %struct.quic_channel_st, ptr %112, i32 0, i32 72
  %114 = load i64, ptr %113, align 8
  %115 = and i64 %114, -67108865
  %116 = or i64 %115, 67108864
  store i64 %116, ptr %113, align 8
  %117 = load i32, ptr %18, align 4, !tbaa !80
  %118 = load ptr, ptr %16, align 8, !tbaa !3
  %119 = getelementptr inbounds nuw %struct.quic_channel_st, ptr %118, i32 0, i32 72
  %120 = zext i32 %117 to i64
  %121 = load i64, ptr %119, align 8
  %122 = and i64 %120, 7
  %123 = shl i64 %122, 17
  %124 = and i64 %121, -917505
  %125 = or i64 %124, %123
  store i64 %125, ptr %119, align 8
  br label %126

126:                                              ; preds = %111, %58
  store i32 1, ptr %8, align 4
  store i32 1, ptr %19, align 4
  br label %127

127:                                              ; preds = %126, %110, %93, %77, %57, %45, %32, %25
  call void @llvm.lifetime.end.p0(i64 4, ptr %18) #9
  call void @llvm.lifetime.end.p0(i64 4, ptr %17) #9
  call void @llvm.lifetime.end.p0(i64 8, ptr %16) #9
  %128 = load i32, ptr %8, align 4
  ret i32 %128
}