; Function Attrs: nounwind uwtable
define internal range(i32 0, 2) i32 @ch_on_handshake_yield_secret(i32 noundef %0, i32 noundef %1, i32 noundef %2, ptr noundef %3, ptr noundef %4, i64 noundef %5, ptr noundef %6) #0 {
  %8 = alloca i64, align 8
  %9 = alloca i32, align 4
  %10 = add i32 %0, -4
  %or.cond = icmp ult i32 %10, -2
  br i1 %or.cond, label %52, label %11

11:                                               ; preds = %7
  %.not = icmp eq i32 %1, 0
  %12 = getelementptr inbounds nuw i8, ptr %6, i64 1568
  %13 = load i64, ptr %12, align 8
  %14 = trunc i64 %13 to i32
  br i1 %.not, label %28, label %15

15:                                               ; preds = %11
  %16 = lshr i32 %14, 14
  %17 = and i32 %16, 7
  %.not38 = icmp samesign ugt i32 %0, %17
  br i1 %.not38, label %18, label %52

18:                                               ; preds = %15
  %19 = getelementptr inbounds nuw i8, ptr %6, i64 1056
  %20 = load ptr, ptr %19, align 8, !tbaa !72
  %21 = tail call i32 @ossl_qtx_provide_secret(ptr noundef %20, i32 noundef %0, i32 noundef %2, ptr noundef %3, ptr noundef %4, i64 noundef %5) #15
  %.not39 = icmp eq i32 %21, 0
  br i1 %.not39, label %52, label %22

22:                                               ; preds = %18
  %23 = load i64, ptr %12, align 8
  %24 = shl nuw nsw i32 %0, 14
  %25 = zext nneg i32 %24 to i64
  %26 = and i64 %23, -114689
  %27 = or disjoint i64 %26, %25
  store i64 %27, ptr %12, align 8
  br label %52

28:                                               ; preds = %11
  %29 = lshr i32 %14, 17
  %30 = and i32 %29, 7
  %.not35 = icmp samesign ugt i32 %0, %30
  br i1 %.not35, label %.preheader, label %52

.preheader:                                       ; preds = %28
  %31 = getelementptr inbounds nuw i8, ptr %6, i64 1120
  br label %32

32:                                               ; preds = %.preheader, %39
  %.03346 = phi i32 [ 0, %.preheader ], [ %40, %39 ]
  %switch.selectcmp.i = icmp eq i32 %.03346, 2
  %switch.select.i = select i1 %switch.selectcmp.i, i64 1, i64 2
  %switch.selectcmp2.i = icmp eq i32 %.03346, 0
  %switch.select3.i = select i1 %switch.selectcmp2.i, i64 0, i64 %switch.select.i
  %33 = getelementptr inbounds nuw [3 x ptr], ptr %31, i64 0, i64 %switch.select3.i
  %34 = load ptr, ptr %33, align 8, !tbaa !118
  call void @llvm.lifetime.start.p0(i64 8, ptr nonnull %8) #15
  store i64 0, ptr %8, align 8, !tbaa !71
  call void @llvm.lifetime.start.p0(i64 4, ptr nonnull %9) #15
  store i32 0, ptr %9, align 4, !tbaa !254
  %35 = icmp eq ptr %34, null
  br i1 %35, label %crypto_ensure_empty.exit.thread42, label %36

crypto_ensure_empty.exit.thread42:                ; preds = %32
  call void @llvm.lifetime.end.p0(i64 4, ptr nonnull %9) #15
  call void @llvm.lifetime.end.p0(i64 8, ptr nonnull %8) #15
  br label %39

36:                                               ; preds = %32
  %37 = call i32 @ossl_quic_rstream_available(ptr noundef nonnull %34, ptr noundef nonnull %8, ptr noundef nonnull %9) #15
  %.not.i = icmp eq i32 %37, 0
  br i1 %.not.i, label %crypto_ensure_empty.exit.thread, label %crypto_ensure_empty.exit

crypto_ensure_empty.exit.thread:                  ; preds = %36
  call void @llvm.lifetime.end.p0(i64 4, ptr nonnull %9) #15
  call void @llvm.lifetime.end.p0(i64 8, ptr nonnull %8) #15
  br label %.loopexit

crypto_ensure_empty.exit:                         ; preds = %36
  %38 = load i64, ptr %8, align 8, !tbaa !71
  %.not45 = icmp eq i64 %38, 0
  call void @llvm.lifetime.end.p0(i64 4, ptr nonnull %9) #15
  call void @llvm.lifetime.end.p0(i64 8, ptr nonnull %8) #15
  br i1 %.not45, label %39, label %.loopexit

.loopexit:                                        ; preds = %crypto_ensure_empty.exit, %crypto_ensure_empty.exit.thread
  call void @ossl_quic_channel_raise_protocol_error_loc(ptr noundef nonnull %6, i64 noundef 10, i64 noundef 6, ptr noundef nonnull @.str.13, ptr noundef null, ptr noundef nonnull @.str, i32 noundef 1079, ptr noundef nonnull @__func__.ch_on_handshake_yield_secret)
  br label %52

39:                                               ; preds = %crypto_ensure_empty.exit.thread42, %crypto_ensure_empty.exit
  %40 = add nuw i32 %.03346, 1
  %exitcond.not = icmp eq i32 %40, %0
  br i1 %exitcond.not, label %41, label %32, !llvm.loop !256

41:                                               ; preds = %39
  %42 = getelementptr inbounds nuw i8, ptr %6, i64 1064
  %43 = load ptr, ptr %42, align 8, !tbaa !116
  %44 = call i32 @ossl_qrx_provide_secret(ptr noundef %43, i32 noundef %0, i32 noundef %2, ptr noundef %3, ptr noundef %4, i64 noundef %5) #15
  %.not36 = icmp eq i32 %44, 0
  br i1 %.not36, label %52, label %45

45:                                               ; preds = %41
  %46 = load i64, ptr %12, align 8
  %47 = shl nuw nsw i32 %0, 17
  %48 = and i64 %46, -68026369
  %49 = or disjoint i32 %47, 67108864
  %50 = zext nneg i32 %49 to i64
  %51 = or disjoint i64 %48, %50
  store i64 %51, ptr %12, align 8
  br label %52

52:                                               ; preds = %22, %45, %41, %28, %18, %15, %7, %.loopexit
  %.034 = phi i32 [ 0, %.loopexit ], [ 0, %7 ], [ 0, %15 ], [ 0, %18 ], [ 0, %28 ], [ 0, %41 ], [ 1, %45 ], [ 1, %22 ]
  ret i32 %.034
}